target datalayout = "e-m:e-p270:32:32-p271:32:32-p272:64:64-i64:64-i128:128-f80:128-n8:16:32:64-S128"
target triple = "x86_64-pc-linux-gnu"

%class.colvarvalue = type { i32, double, %"class.colvarmodule::rvector", %"class.colvarmodule::quaternion", %"class.colvarmodule::vector1d", %"class.std::vector.0", %"class.std::vector.5", %"class.std::vector.5" }
%"class.colvarmodule::rvector" = type { double, double, double }
%"class.colvarmodule::quaternion" = type { double, double, double, double }
%"class.colvarmodule::vector1d" = type { %"class.std::vector" }
%"class.std::vector" = type { %"struct.std::_Vector_base" }
%"struct.std::_Vector_base" = type { %"struct.std::_Vector_base<double, std::allocator<double>>::_Vector_impl" }
%"struct.std::_Vector_base<double, std::allocator<double>>::_Vector_impl" = type { %"struct.std::_Vector_base<double, std::allocator<double>>::_Vector_impl_data" }
%"struct.std::_Vector_base<double, std::allocator<double>>::_Vector_impl_data" = type { ptr, ptr, ptr }
%"class.std::vector.0" = type { %"struct.std::_Vector_base.1" }
%"struct.std::_Vector_base.1" = type { %"struct.std::_Vector_base<colvarvalue::Type, std::allocator<colvarvalue::Type>>::_Vector_impl" }
%"struct.std::_Vector_base<colvarvalue::Type, std::allocator<colvarvalue::Type>>::_Vector_impl" = type { %"struct.std::_Vector_base<colvarvalue::Type, std::allocator<colvarvalue::Type>>::_Vector_impl_data" }
%"struct.std::_Vector_base<colvarvalue::Type, std::allocator<colvarvalue::Type>>::_Vector_impl_data" = type { ptr, ptr, ptr }
%"class.std::vector.5" = type { %"struct.std::_Vector_base.6" }
%"struct.std::_Vector_base.6" = type { %"struct.std::_Vector_base<int, std::allocator<int>>::_Vector_impl" }
%"struct.std::_Vector_base<int, std::allocator<int>>::_Vector_impl" = type { %"struct.std::_Vector_base<int, std::allocator<int>>::_Vector_impl_data" }
%"struct.std::_Vector_base<int, std::allocator<int>>::_Vector_impl_data" = type { ptr, ptr, ptr }

; Function Attrs: mustprogress nounwind uwtable
define linkonce_odr noundef nonnull align 8 dereferenceable(8) ptr @_ZNKSt6vectorIdSaIdEEixEm(ptr noundef nonnull align 8 dereferenceable(24) %0, i64 noundef %1) #2 comdat align 2 {
  %3 = alloca ptr, align 8
  %4 = alloca i64, align 8
  store ptr %0, ptr %3, align 8, !tbaa !51
  store i64 %1, ptr %4, align 8, !tbaa !37
  %5 = load ptr, ptr %3, align 8
  %6 = getelementptr inbounds nuw %"struct.std::_Vector_base", ptr %5, i32 0, i32 0
  %7 = getelementptr inbounds nuw %"struct.std::_Vector_base<double, std::allocator<double>>::_Vector_impl_data", ptr %6, i32 0, i32 0
  %8 = load ptr, ptr %7, align 8, !tbaa !53
  %9 = load i64, ptr %4, align 8, !tbaa !37
  %10 = getelementptr inbounds nuw double, ptr %8, i64 %9
  ret ptr %10
}

; Function Attrs: mustprogress nounwind uwtable
define linkonce_odr noundef i64 @_ZNKSt6vectorIdSaIdEE4sizeEv(ptr noundef nonnull align 8 dereferenceable(24) %0) #2 comdat align 2 {
  %2 = alloca ptr, align 8
  store ptr %0, ptr %2, align 8, !tbaa !51
  %3 = load ptr, ptr %2, align 8
  %4 = getelementptr inbounds nuw %"struct.std::_Vector_base", ptr %3, i32 0, i32 0
  %5 = getelementptr inbounds nuw %"struct.std::_Vector_base<double, std::allocator<double>>::_Vector_impl_data", ptr %4, i32 0, i32 1
  %6 = load ptr, ptr %5, align 8, !tbaa !54
  %7 = getelementptr inbounds nuw %"struct.std::_Vector_base", ptr %3, i32 0, i32 0
  %8 = getelementptr inbounds nuw %"struct.std::_Vector_base<double, std::allocator<double>>::_Vector_impl_data", ptr %7, i32 0, i32 0
  %9 = load ptr, ptr %8, align 8, !tbaa !53
  %10 = ptrtoint ptr %6 to i64
  %11 = ptrtoint ptr %9 to i64
  %12 = sub i64 %10, %11
  %13 = sdiv exact i64 %12, 8
  ret i64 %13
}

; Function Attrs: inlinehint mustprogress nounwind uwtable
define linkonce_odr noundef nonnull align 8 dereferenceable(8) ptr @_ZNK12colvarmodule8vector1dIdEixEm(ptr noundef nonnull align 8 dereferenceable(24) %0, i64 noundef %1) #3 comdat align 2 {
  %3 = alloca ptr, align 8
  %4 = alloca i64, align 8
  store ptr %0, ptr %3, align 8, !tbaa !35
  store i64 %1, ptr %4, align 8, !tbaa !37
  %5 = load ptr, ptr %3, align 8
  %6 = getelementptr inbounds nuw %"class.colvarmodule::vector1d", ptr %5, i32 0, i32 0
  %7 = load i64, ptr %4, align 8, !tbaa !37
  %8 = call noundef nonnull align 8 dereferenceable(8) ptr @_ZNKSt6vectorIdSaIdEEixEm(ptr noundef nonnull align 8 dereferenceable(24) %6, i64 noundef %7) #15
  ret ptr %8
}

; Function Attrs: inlinehint mustprogress nounwind uwtable
define linkonce_odr noundef i64 @_ZNK12colvarmodule8vector1dIdE4sizeEv(ptr noundef nonnull align 8 dereferenceable(24) %0) #3 comdat align 2 {
  %2 = alloca ptr, align 8
  store ptr %0, ptr %2, align 8, !tbaa !35
  %3 = load ptr, ptr %2, align 8
  %4 = getelementptr inbounds nuw %"class.colvarmodule::vector1d", ptr %3, i32 0, i32 0
  %5 = call noundef i64 @_ZNKSt6vectorIdSaIdEE4sizeEv(ptr noundef nonnull align 8 dereferenceable(24) %4) #15
  ret i64 %5
}

; Function Attrs: inlinehint mustprogress nounwind uwtable
define linkonce_odr noundef double @_ZNK12colvarmodule8vector1dIdE3sumEv(ptr noundef nonnull align 8 dereferenceable(24) %0) #3 comdat align 2 {
  %2 = alloca ptr, align 8
  %3 = alloca double, align 8
  %4 = alloca i64, align 8
  store ptr %0, ptr %2, align 8, !tbaa !35
  %5 = load ptr, ptr %2, align 8
  call void @llvm.lifetime.start.p0(i64 8, ptr %3) #15
  store double 0.000000e+00, ptr %3, align 8, !tbaa !43
  call void @llvm.lifetime.start.p0(i64 8, ptr %4) #15
  store i64 0, ptr %4, align 8, !tbaa !37
  br label %6

6:                                                ; preds = %16, %1
  %7 = load i64, ptr %4, align 8, !tbaa !37
  %8 = call noundef i64 @_ZNK12colvarmodule8vector1dIdE4sizeEv(ptr noundef nonnull align 8 dereferenceable(24) %5)
  %9 = icmp ult i64 %7, %8
  br i1 %9, label %10, label %19

10:                                               ; preds = %6
  %11 = load i64, ptr %4, align 8, !tbaa !37
  %12 = call noundef nonnull align 8 dereferenceable(8) ptr @_ZNK12colvarmodule8vector1dIdEixEm(ptr noundef nonnull align 8 dereferenceable(24) %5, i64 noundef %11)
  %13 = load double, ptr %12, align 8, !tbaa !43
  %14 = load double, ptr %3, align 8, !tbaa !43
  %15 = fadd double %14, %13
  store double %15, ptr %3, align 8, !tbaa !43
  br label %16

16:                                               ; preds = %10
  %17 = load i64, ptr %4, align 8, !tbaa !37
  %18 = add i64 %17, 1
  store i64 %18, ptr %4, align 8, !tbaa !37
  br label %6, !llvm.loop !182

19:                                               ; preds = %6
  %20 = load double, ptr %3, align 8, !tbaa !43
  call void @llvm.lifetime.end.p0(i64 8, ptr %4) #15
  call void @llvm.lifetime.end.p0(i64 8, ptr %3) #15
  ret double %20
}

; Function Attrs: mustprogress uwtable
define noundef double @_ZNK11colvarvalue3sumEv(ptr noundef nonnull align 8 dereferenceable(168) %0) #0 align 2 {
  %2 = alloca double, align 8
  %3 = alloca ptr, align 8
  store ptr %0, ptr %3, align 8, !tbaa !4
  %4 = load ptr, ptr %3, align 8
  %5 = getelementptr inbounds nuw %class.colvarvalue, ptr %4, i32 0, i32 0
  %6 = load i32, ptr %5, align 8, !tbaa !9
  switch i32 %6, label %42 [
    i32 1, label %7
    i32 2, label %10
    i32 3, label %10
    i32 4, label %10
    i32 5, label %22
    i32 6, label %22
    i32 7, label %38
    i32 0, label %41
  ]

7:                                                ; preds = %1
  %8 = getelementptr inbounds nuw %class.colvarvalue, ptr %4, i32 0, i32 1
  %9 = load double, ptr %8, align 8, !tbaa !30
  store double %9, ptr %2, align 8
  br label %43

10:                                               ; preds = %1, %1, %1
  %11 = getelementptr inbounds nuw %class.colvarvalue, ptr %4, i32 0, i32 2
  %12 = getelementptr inbounds nuw %"class.colvarmodule::rvector", ptr %11, i32 0, i32 0
  %13 = load double, ptr %12, align 8, !tbaa !166
  %14 = getelementptr inbounds nuw %class.colvarvalue, ptr %4, i32 0, i32 2
  %15 = getelementptr inbounds nuw %"class.colvarmodule::rvector", ptr %14, i32 0, i32 1
  %16 = load double, ptr %15, align 8, !tbaa !167
  %17 = fadd double %13, %16
  %18 = getelementptr inbounds nuw %class.colvarvalue, ptr %4, i32 0, i32 2
  %19 = getelementptr inbounds nuw %"class.colvarmodule::rvector", ptr %18, i32 0, i32 2
  %20 = load double, ptr %19, align 8, !tbaa !168
  %21 = fadd double %17, %20
  store double %21, ptr %2, align 8
  br label %43

22:                                               ; preds = %1, %1
  %23 = getelementptr inbounds nuw %class.colvarvalue, ptr %4, i32 0, i32 3
  %24 = getelementptr inbounds nuw %"class.colvarmodule::quaternion", ptr %23, i32 0, i32 0
  %25 = load double, ptr %24, align 8, !tbaa !169
  %26 = getelementptr inbounds nuw %class.colvarvalue, ptr %4, i32 0, i32 3
  %27 = getelementptr inbounds nuw %"class.colvarmodule::quaternion", ptr %26, i32 0, i32 1
  %28 = load double, ptr %27, align 8, !tbaa !170
  %29 = fadd double %25, %28
  %30 = getelementptr inbounds nuw %class.colvarvalue, ptr %4, i32 0, i32 3
  %31 = getelementptr inbounds nuw %"class.colvarmodule::quaternion", ptr %30, i32 0, i32 2
  %32 = load double, ptr %31, align 8, !tbaa !171
  %33 = fadd double %29, %32
  %34 = getelementptr inbounds nuw %class.colvarvalue, ptr %4, i32 0, i32 3
  %35 = getelementptr inbounds nuw %"class.colvarmodule::quaternion", ptr %34, i32 0, i32 3
  %36 = load double, ptr %35, align 8, !tbaa !172
  %37 = fadd double %33, %36
  store double %37, ptr %2, align 8
  br label %43

38:                                               ; preds = %1
  %39 = getelementptr inbounds nuw %class.colvarvalue, ptr %4, i32 0, i32 4
  %40 = call noundef double @_ZNK12colvarmodule8vector1dIdE3sumEv(ptr noundef nonnull align 8 dereferenceable(24) %39)
  store double %40, ptr %2, align 8
  br label %43

41:                                               ; preds = %1
  br label %42

42:                                               ; preds = %1, %41
  store double 0.000000e+00, ptr %2, align 8
  br label %43

43:                                               ; preds = %42, %38, %22, %10, %7
  %44 = load double, ptr %2, align 8
  ret double %44
}