; Function Attrs: mustprogress nofree norecurse nosync nounwind willreturn memory(read, inaccessiblemem: none) uwtable
define noundef double @_ZNK11colvarvalue3sumEv(ptr noundef nonnull readonly align 8 captures(none) dereferenceable(168) %0) local_unnamed_addr #15 align 2 {
  %2 = load i32, ptr %0, align 8, !tbaa !4
  switch i32 %2, label %_ZNK12colvarmodule8vector1dIdE3sumEv.exit [
    i32 1, label %3
    i32 2, label %6
    i32 3, label %6
    i32 4, label %6
    i32 5, label %15
    i32 6, label %15
    i32 7, label %27
  ]

3:                                                ; preds = %1
  %4 = getelementptr inbounds nuw i8, ptr %0, i64 8
  %5 = load double, ptr %4, align 8, !tbaa !39
  br label %_ZNK12colvarmodule8vector1dIdE3sumEv.exit

6:                                                ; preds = %1, %1, %1
  %7 = getelementptr inbounds nuw i8, ptr %0, i64 16
  %8 = load double, ptr %7, align 8, !tbaa !81
  %9 = getelementptr inbounds nuw i8, ptr %0, i64 24
  %10 = load double, ptr %9, align 8, !tbaa !82
  %11 = fadd double %8, %10
  %12 = getelementptr inbounds nuw i8, ptr %0, i64 32
  %13 = load double, ptr %12, align 8, !tbaa !83
  %14 = fadd double %11, %13
  br label %_ZNK12colvarmodule8vector1dIdE3sumEv.exit

15:                                               ; preds = %1, %1
  %16 = getelementptr inbounds nuw i8, ptr %0, i64 40
  %17 = load double, ptr %16, align 8, !tbaa !84
  %18 = getelementptr inbounds nuw i8, ptr %0, i64 48
  %19 = load double, ptr %18, align 8, !tbaa !85
  %20 = fadd double %17, %19
  %21 = getelementptr inbounds nuw i8, ptr %0, i64 56
  %22 = load double, ptr %21, align 8, !tbaa !86
  %23 = fadd double %20, %22
  %24 = getelementptr inbounds nuw i8, ptr %0, i64 64
  %25 = load double, ptr %24, align 8, !tbaa !87
  %26 = fadd double %23, %25
  br label %_ZNK12colvarmodule8vector1dIdE3sumEv.exit

27:                                               ; preds = %1
  %28 = getelementptr inbounds nuw i8, ptr %0, i64 72
  %29 = getelementptr inbounds nuw i8, ptr %0, i64 80
  %30 = load ptr, ptr %29, align 8, !tbaa !28
  %31 = load ptr, ptr %28, align 8, !tbaa !29
  %.not.i = icmp eq ptr %30, %31
  br i1 %.not.i, label %_ZNK12colvarmodule8vector1dIdE3sumEv.exit, label %.lr.ph.preheader.i

.lr.ph.preheader.i:                               ; preds = %27
  %32 = ptrtoint ptr %30 to i64
  %33 = ptrtoint ptr %31 to i64
  %34 = sub i64 %32, %33
  %35 = ashr exact i64 %34, 3
  %umax.i = tail call i64 @llvm.umax.i64(i64 %35, i64 1)
  br label %.lr.ph.i

.lr.ph.i:                                         ; preds = %.lr.ph.i, %.lr.ph.preheader.i
  %.07.i = phi i64 [ %39, %.lr.ph.i ], [ 0, %.lr.ph.preheader.i ]
  %.056.i = phi double [ %38, %.lr.ph.i ], [ 0.000000e+00, %.lr.ph.preheader.i ]
  %36 = getelementptr inbounds nuw double, ptr %31, i64 %.07.i
  %37 = load double, ptr %36, align 8, !tbaa !31
  %38 = fadd double %.056.i, %37
  %39 = add nuw i64 %.07.i, 1
  %exitcond.not.i = icmp eq i64 %39, %umax.i
  br i1 %exitcond.not.i, label %_ZNK12colvarmodule8vector1dIdE3sumEv.exit, label %.lr.ph.i, !llvm.loop !175

_ZNK12colvarmodule8vector1dIdE3sumEv.exit:        ; preds = %.lr.ph.i, %27, %1, %15, %6, %3
  %.0 = phi double [ %26, %15 ], [ %14, %6 ], [ %5, %3 ], [ 0.000000e+00, %1 ], [ 0.000000e+00, %27 ], [ %38, %.lr.ph.i ]
  ret double %.0
}